target datalayout = "e-m:e-p270:32:32-p271:32:32-p272:64:64-i64:64-i128:128-f80:128-n8:16:32:64-S128"
target triple = "x86_64-pc-linux-gnu"

%struct.sockaddr_storage = type { i16, [118 x i8], i64 }
%struct.slurm_msg = type { %struct.sockaddr_storage, ptr, i32, i32, i32, i8, i32, i8, i32, ptr, ptr, i32, ptr, ptr, i16, i8, i16, i16, %struct.forward, ptr, %struct.sockaddr_storage, ptr }
%struct.forward = type { %struct.slurm_node_alias_addrs_t, i16, i16, ptr, i32, i16, i16 }
%struct.slurm_node_alias_addrs_t = type { i64, ptr, ptr, i32, ptr }
%struct.kvs_comm_set = type { i16, ptr, i16, ptr }
%struct.kvs_hosts = type { i32, i16, ptr }

@.str.17 = private unnamed_addr constant [28 x i8] c"Could not forward msg to %s\00", align 1

; Function Attrs: nounwind uwtable
define internal i32 @_forward_comm_set(ptr noundef %0) #0 {
  %2 = alloca ptr, align 8
  %3 = alloca i32, align 4
  %4 = alloca i32, align 4
  %5 = alloca i32, align 4
  %6 = alloca %struct.slurm_msg, align 8
  %7 = alloca i32, align 4
  store ptr %0, ptr %2, align 8
  call void @llvm.lifetime.start.p0(i64 4, ptr %3) #8
  call void @llvm.lifetime.start.p0(i64 4, ptr %4) #8
  store i32 0, ptr %4, align 4
  call void @llvm.lifetime.start.p0(i64 4, ptr %5) #8
  %8 = load ptr, ptr %2, align 8
  %9 = getelementptr inbounds nuw %struct.kvs_comm_set, ptr %8, i32 0, i32 0
  %10 = load i16, ptr %9, align 8
  %11 = zext i16 %10 to i32
  store i32 %11, ptr %5, align 4
  call void @llvm.lifetime.start.p0(i64 424, ptr %6) #8
  call void @llvm.lifetime.start.p0(i64 4, ptr %7) #8
  %12 = load ptr, ptr %2, align 8
  %13 = getelementptr inbounds nuw %struct.kvs_comm_set, ptr %12, i32 0, i32 0
  store i16 0, ptr %13, align 8
  store i32 0, ptr %3, align 4
  br label %14

14:                                               ; preds = %80, %1
  %15 = load i32, ptr %3, align 4
  %16 = load i32, ptr %5, align 4
  %17 = icmp slt i32 %15, %16
  br i1 %17, label %18, label %83

18:                                               ; preds = %14
  %19 = load ptr, ptr %2, align 8
  %20 = getelementptr inbounds nuw %struct.kvs_comm_set, ptr %19, i32 0, i32 1
  %21 = load ptr, ptr %20, align 8
  %22 = load i32, ptr %3, align 4
  %23 = sext i32 %22 to i64
  %24 = getelementptr inbounds %struct.kvs_hosts, ptr %21, i64 %23
  %25 = getelementptr inbounds nuw %struct.kvs_hosts, ptr %24, i32 0, i32 1
  %26 = load i16, ptr %25, align 4
  %27 = zext i16 %26 to i32
  %28 = icmp eq i32 %27, 0
  br i1 %28, label %29, label %30

29:                                               ; preds = %18
  br label %80

30:                                               ; preds = %18
  call void @slurm_msg_t_init(ptr noundef %6)
  call void @slurm_msg_set_r_uid(ptr noundef %6, i32 noundef -1)
  %31 = getelementptr inbounds nuw %struct.slurm_msg, ptr %6, i32 0, i32 16
  store i16 7204, ptr %31, align 4
  %32 = load ptr, ptr %2, align 8
  %33 = getelementptr inbounds nuw %struct.slurm_msg, ptr %6, i32 0, i32 13
  store ptr %32, ptr %33, align 8
  %34 = getelementptr inbounds nuw %struct.slurm_msg, ptr %6, i32 0, i32 0
  %35 = load ptr, ptr %2, align 8
  %36 = getelementptr inbounds nuw %struct.kvs_comm_set, ptr %35, i32 0, i32 1
  %37 = load ptr, ptr %36, align 8
  %38 = load i32, ptr %3, align 4
  %39 = sext i32 %38 to i64
  %40 = getelementptr inbounds %struct.kvs_hosts, ptr %37, i64 %39
  %41 = getelementptr inbounds nuw %struct.kvs_hosts, ptr %40, i32 0, i32 1
  %42 = load i16, ptr %41, align 4
  %43 = load ptr, ptr %2, align 8
  %44 = getelementptr inbounds nuw %struct.kvs_comm_set, ptr %43, i32 0, i32 1
  %45 = load ptr, ptr %44, align 8
  %46 = load i32, ptr %3, align 4
  %47 = sext i32 %46 to i64
  %48 = getelementptr inbounds %struct.kvs_hosts, ptr %45, i64 %47
  %49 = getelementptr inbounds nuw %struct.kvs_hosts, ptr %48, i32 0, i32 2
  %50 = load ptr, ptr %49, align 8
  call void @slurm_set_addr(ptr noundef %34, i16 noundef zeroext %42, ptr noundef %50)
  %51 = call i32 @slurm_send_recv_rc_msg_only_one(ptr noundef %6, ptr noundef %7, i32 noundef 0)
  %52 = icmp slt i32 %51, 0
  br i1 %52, label %53, label %63

53:                                               ; preds = %30
  %54 = load ptr, ptr %2, align 8
  %55 = getelementptr inbounds nuw %struct.kvs_comm_set, ptr %54, i32 0, i32 1
  %56 = load ptr, ptr %55, align 8
  %57 = load i32, ptr %3, align 4
  %58 = sext i32 %57 to i64
  %59 = getelementptr inbounds %struct.kvs_hosts, ptr %56, i64 %58
  %60 = getelementptr inbounds nuw %struct.kvs_hosts, ptr %59, i32 0, i32 2
  %61 = load ptr, ptr %60, align 8
  %62 = call i32 (ptr, ...) @error(ptr noundef @.str.17, ptr noundef %61)
  store i32 1, ptr %7, align 4
  br label %63

63:                                               ; preds = %53, %30
  %64 = load i32, ptr %4, align 4
  %65 = load i32, ptr %7, align 4
  %66 = icmp sgt i32 %64, %65
  br i1 %66, label %67, label %69

67:                                               ; preds = %63
  %68 = load i32, ptr %4, align 4
  br label %71

69:                                               ; preds = %63
  %70 = load i32, ptr %7, align 4
  br label %71

71:                                               ; preds = %69, %67
  %72 = phi i32 [ %68, %67 ], [ %70, %69 ]
  store i32 %72, ptr %4, align 4
  %73 = load ptr, ptr %2, align 8
  %74 = getelementptr inbounds nuw %struct.kvs_comm_set, ptr %73, i32 0, i32 1
  %75 = load ptr, ptr %74, align 8
  %76 = load i32, ptr %3, align 4
  %77 = sext i32 %76 to i64
  %78 = getelementptr inbounds %struct.kvs_hosts, ptr %75, i64 %77
  %79 = getelementptr inbounds nuw %struct.kvs_hosts, ptr %78, i32 0, i32 2
  call void @slurm_xfree(ptr noundef %79)
  br label %80

80:                                               ; preds = %71, %29
  %81 = load i32, ptr %3, align 4
  %82 = add nsw i32 %81, 1
  store i32 %82, ptr %3, align 4
  br label %14, !llvm.loop !13

83:                                               ; preds = %14
  %84 = load ptr, ptr %2, align 8
  %85 = getelementptr inbounds nuw %struct.kvs_comm_set, ptr %84, i32 0, i32 1
  call void @slurm_xfree(ptr noundef %85)
  %86 = load i32, ptr %4, align 4
  call void @llvm.lifetime.end.p0(i64 4, ptr %7) #8
  call void @llvm.lifetime.end.p0(i64 424, ptr %6) #8
  call void @llvm.lifetime.end.p0(i64 4, ptr %5) #8
  call void @llvm.lifetime.end.p0(i64 4, ptr %4) #8
  call void @llvm.lifetime.end.p0(i64 4, ptr %3) #8
  ret i32 %86
}