; Function Attrs: nounwind uwtable
define internal fastcc i32 @_forward_comm_set(ptr noundef %0) unnamed_addr #0 {
  %2 = alloca %struct.slurm_msg, align 8
  %3 = alloca i32, align 4
  %4 = load i16, ptr %0, align 8
  call void @llvm.lifetime.start.p0(i64 424, ptr nonnull %2) #10
  call void @llvm.lifetime.start.p0(i64 4, ptr nonnull %3) #10
  store i16 0, ptr %0, align 8
  %.not = icmp eq i16 %4, 0
  br i1 %.not, label %._crit_edge, label %.lr.ph

.lr.ph:                                           ; preds = %1
  %5 = getelementptr inbounds nuw i8, ptr %0, i64 8
  %6 = getelementptr inbounds nuw i8, ptr %2, i64 212
  %7 = getelementptr inbounds nuw i8, ptr %2, i64 200
  %wide.trip.count = zext i16 %4 to i64
  br label %8

8:                                                ; preds = %.lr.ph, %32
  %indvars.iv = phi i64 [ 0, %.lr.ph ], [ %indvars.iv.next, %32 ]
  %.01920 = phi i32 [ 0, %.lr.ph ], [ %.1, %32 ]
  %9 = load ptr, ptr %5, align 8
  %10 = getelementptr inbounds nuw %struct.kvs_hosts, ptr %9, i64 %indvars.iv, i32 1
  %11 = load i16, ptr %10, align 4
  %12 = icmp eq i16 %11, 0
  br i1 %12, label %32, label %13

13:                                               ; preds = %8
  call void @slurm_msg_t_init(ptr noundef nonnull %2) #10
  call void @slurm_msg_set_r_uid(ptr noundef nonnull %2, i32 noundef -1) #10
  store i16 7204, ptr %6, align 4
  store ptr %0, ptr %7, align 8
  %14 = load ptr, ptr %5, align 8
  %15 = getelementptr inbounds nuw %struct.kvs_hosts, ptr %14, i64 %indvars.iv
  %16 = getelementptr inbounds nuw i8, ptr %15, i64 4
  %17 = load i16, ptr %16, align 4
  %18 = getelementptr inbounds nuw i8, ptr %15, i64 8
  %19 = load ptr, ptr %18, align 8
  call void @slurm_set_addr(ptr noundef nonnull %2, i16 noundef zeroext %17, ptr noundef %19) #10
  %20 = call i32 @slurm_send_recv_rc_msg_only_one(ptr noundef nonnull %2, ptr noundef nonnull %3, i32 noundef 0) #10
  %21 = icmp slt i32 %20, 0
  br i1 %21, label %22, label %._crit_edge23

._crit_edge23:                                    ; preds = %13
  %.pre = load i32, ptr %3, align 4
  br label %27

22:                                               ; preds = %13
  %23 = load ptr, ptr %5, align 8
  %24 = getelementptr inbounds nuw %struct.kvs_hosts, ptr %23, i64 %indvars.iv, i32 2
  %25 = load ptr, ptr %24, align 8
  %26 = call i32 (ptr, ...) @error(ptr noundef nonnull @.str.17, ptr noundef %25) #10
  store i32 1, ptr %3, align 4
  br label %27

27:                                               ; preds = %._crit_edge23, %22
  %28 = phi i32 [ %.pre, %._crit_edge23 ], [ 1, %22 ]
  %29 = call i32 @llvm.smax.i32(i32 %.01920, i32 %28)
  %30 = load ptr, ptr %5, align 8
  %31 = getelementptr inbounds nuw %struct.kvs_hosts, ptr %30, i64 %indvars.iv, i32 2
  call void @slurm_xfree(ptr noundef nonnull %31) #10
  br label %32

32:                                               ; preds = %8, %27
  %.1 = phi i32 [ %.01920, %8 ], [ %29, %27 ]
  %indvars.iv.next = add nuw nsw i64 %indvars.iv, 1
  %exitcond.not = icmp eq i64 %indvars.iv.next, %wide.trip.count
  br i1 %exitcond.not, label %._crit_edge, label %8, !llvm.loop !13

._crit_edge:                                      ; preds = %32, %1
  %.019.lcssa = phi i32 [ 0, %1 ], [ %.1, %32 ]
  %33 = getelementptr inbounds nuw i8, ptr %0, i64 8
  call void @slurm_xfree(ptr noundef nonnull %33) #10
  call void @llvm.lifetime.end.p0(i64 4, ptr nonnull %3) #10
  call void @llvm.lifetime.end.p0(i64 424, ptr nonnull %2) #10
  ret i32 %.019.lcssa
}